target datalayout = "e-m:e-p270:32:32-p271:32:32-p272:64:64-i64:64-i128:128-f80:128-n8:16:32:64-S128"
target triple = "x86_64-unknown-linux-gnu"

%struct.Visitor = type { ptr, ptr, ptr, ptr, ptr, ptr, ptr, ptr, ptr, ptr, ptr, ptr, ptr, ptr, ptr, ptr, ptr, ptr, ptr, ptr, i32, %struct.CompatPolicy, ptr, ptr }
%struct.CompatPolicy = type { i8, i32, i8, i32, i8, i32, i8, i32 }
%struct.timeval = type { i64, i64 }

@.str = private unnamed_addr constant [41 x i8] c"v->type != VISITOR_OUTPUT || v->complete\00", align 1
@.str.1 = private unnamed_addr constant [31 x i8] c"../qemu/qapi/qapi-visit-core.c\00", align 1
@__PRETTY_FUNCTION__.visit_complete = private unnamed_addr constant [39 x i8] c"void visit_complete(Visitor *, void *)\00", align 1
@trace_events_enabled_count = external global i32, align 4
@_TRACE_VISIT_COMPLETE_DSTATE = external global i16, align 2
@message_with_timestamp = external global i8, align 1
@.str.19 = private unnamed_addr constant [44 x i8] c"%d@%zu.%06zu:visit_complete v=%p opaque=%p\0A\00", align 1
@.str.20 = private unnamed_addr constant [31 x i8] c"visit_complete v=%p opaque=%p\0A\00", align 1
@qemu_loglevel = external global i32, align 4

; Function Attrs: nounwind sspstrong uwtable
define internal zeroext i1 @qemu_loglevel_mask(i32 noundef %mask) #0 {
entry:
  %mask.addr = alloca i32, align 4
  store i32 %mask, ptr %mask.addr, align 4
  %0 = load i32, ptr @qemu_loglevel, align 4
  %1 = load i32, ptr %mask.addr, align 4
  %and = and i32 %0, %1
  %cmp = icmp ne i32 %and, 0
  ret i1 %cmp
}

; Function Attrs: nounwind sspstrong uwtable
define internal void @_nocheck__trace_visit_complete(ptr noundef %v, ptr noundef %opaque) #0 {
entry:
  %v.addr = alloca ptr, align 8
  %opaque.addr = alloca ptr, align 8
  %_now = alloca %struct.timeval, align 8
  store ptr %v, ptr %v.addr, align 8
  store ptr %opaque, ptr %opaque.addr, align 8
  %0 = load i32, ptr @trace_events_enabled_count, align 4
  %tobool = icmp ne i32 %0, 0
  %lnot = xor i1 %tobool, true
  %lnot1 = xor i1 %lnot, true
  %lnot.ext = zext i1 %lnot1 to i32
  %conv = sext i32 %lnot.ext to i64
  %tobool2 = icmp ne i64 %conv, 0
  br i1 %tobool2, label %land.lhs.true, label %if.end11

land.lhs.true:                                    ; preds = %entry
  %1 = load i16, ptr @_TRACE_VISIT_COMPLETE_DSTATE, align 2
  %conv3 = zext i16 %1 to i32
  %tobool4 = icmp ne i32 %conv3, 0
  br i1 %tobool4, label %land.lhs.true5, label %if.end11

land.lhs.true5:                                   ; preds = %land.lhs.true
  %call = call zeroext i1 @qemu_loglevel_mask(i32 noundef 32768)
  br i1 %call, label %if.then, label %if.end11

if.then:                                          ; preds = %land.lhs.true5
  %2 = load i8, ptr @message_with_timestamp, align 1
  %tobool7 = trunc i8 %2 to i1
  br i1 %tobool7, label %if.then8, label %if.else

if.then8:                                         ; preds = %if.then
  %call9 = call i32 @gettimeofday(ptr noundef %_now, ptr noundef null) #6
  %call10 = call i32 @qemu_get_thread_id()
  %tv_sec = getelementptr inbounds %struct.timeval, ptr %_now, i32 0, i32 0
  %3 = load i64, ptr %tv_sec, align 8
  %tv_usec = getelementptr inbounds %struct.timeval, ptr %_now, i32 0, i32 1
  %4 = load i64, ptr %tv_usec, align 8
  %5 = load ptr, ptr %v.addr, align 8
  %6 = load ptr, ptr %opaque.addr, align 8
  call void (ptr, ...) @qemu_log(ptr noundef @.str.19, i32 noundef %call10, i64 noundef %3, i64 noundef %4, ptr noundef %5, ptr noundef %6)
  br label %if.end

if.else:                                          ; preds = %if.then
  %7 = load ptr, ptr %v.addr, align 8
  %8 = load ptr, ptr %opaque.addr, align 8
  call void (ptr, ...) @qemu_log(ptr noundef @.str.20, ptr noundef %7, ptr noundef %8)
  br label %if.end

if.end:                                           ; preds = %if.else, %if.then8
  br label %if.end11

if.end11:                                         ; preds = %if.end, %land.lhs.true5, %land.lhs.true, %entry
  ret void
}

; Function Attrs: nounwind sspstrong uwtable
define internal void @trace_visit_complete(ptr noundef %v, ptr noundef %opaque) #0 {
entry:
  %v.addr = alloca ptr, align 8
  %opaque.addr = alloca ptr, align 8
  store ptr %v, ptr %v.addr, align 8
  store ptr %opaque, ptr %opaque.addr, align 8
  %0 = load ptr, ptr %v.addr, align 8
  %1 = load ptr, ptr %opaque.addr, align 8
  call void @_nocheck__trace_visit_complete(ptr noundef %0, ptr noundef %1)
  ret void
}

; Function Attrs: nounwind sspstrong uwtable
define dso_local void @visit_complete(ptr noundef %v, ptr noundef %opaque) #0 {
entry:
  %v.addr = alloca ptr, align 8
  %opaque.addr = alloca ptr, align 8
  store ptr %v, ptr %v.addr, align 8
  store ptr %opaque, ptr %opaque.addr, align 8
  %0 = load ptr, ptr %v.addr, align 8
  %type = getelementptr inbounds %struct.Visitor, ptr %0, i32 0, i32 20
  %1 = load i32, ptr %type, align 8
  %cmp = icmp ne i32 %1, 2
  br i1 %cmp, label %if.then, label %lor.lhs.false

lor.lhs.false:                                    ; preds = %entry
  %2 = load ptr, ptr %v.addr, align 8
  %complete = getelementptr inbounds %struct.Visitor, ptr %2, i32 0, i32 22
  %3 = load ptr, ptr %complete, align 8
  %tobool = icmp ne ptr %3, null
  br i1 %tobool, label %if.then, label %if.else

if.then:                                          ; preds = %lor.lhs.false, %entry
  br label %if.end

if.else:                                          ; preds = %lor.lhs.false
  call void @__assert_fail(ptr noundef @.str, ptr noundef @.str.1, i32 noundef 29, ptr noundef @__PRETTY_FUNCTION__.visit_complete) #5
  unreachable

if.end:                                           ; preds = %if.then
  %4 = load ptr, ptr %v.addr, align 8
  %5 = load ptr, ptr %opaque.addr, align 8
  call void @trace_visit_complete(ptr noundef %4, ptr noundef %5)
  %6 = load ptr, ptr %v.addr, align 8
  %complete1 = getelementptr inbounds %struct.Visitor, ptr %6, i32 0, i32 22
  %7 = load ptr, ptr %complete1, align 8
  %tobool2 = icmp ne ptr %7, null
  br i1 %tobool2, label %if.then3, label %if.end5

if.then3:                                         ; preds = %if.end
  %8 = load ptr, ptr %v.addr, align 8
  %complete4 = getelementptr inbounds %struct.Visitor, ptr %8, i32 0, i32 22
  %9 = load ptr, ptr %complete4, align 8
  %10 = load ptr, ptr %v.addr, align 8
  %11 = load ptr, ptr %opaque.addr, align 8
  call void %9(ptr noundef %10, ptr noundef %11)
  br label %if.end5

if.end5:                                          ; preds = %if.then3, %if.end
  ret void
}