; Function Attrs: nounwind sspstrong uwtable
define dso_local void @visit_complete(ptr noundef %v, ptr noundef %opaque) local_unnamed_addr #0 {
entry:
  %_now.i.i = alloca %struct.timeval, align 8
  %type = getelementptr inbounds nuw i8, ptr %v, i64 160
  %0 = load i32, ptr %type, align 8
  %cmp.not = icmp eq i32 %0, 2
  br i1 %cmp.not, label %lor.lhs.false, label %if.end

lor.lhs.false:                                    ; preds = %entry
  %complete = getelementptr inbounds nuw i8, ptr %v, i64 200
  %1 = load ptr, ptr %complete, align 8
  %tobool.not = icmp eq ptr %1, null
  br i1 %tobool.not, label %if.else, label %if.end

if.else:                                          ; preds = %lor.lhs.false
  tail call void @__assert_fail(ptr noundef nonnull @.str, ptr noundef nonnull @.str.1, i32 noundef 29, ptr noundef nonnull @__PRETTY_FUNCTION__.visit_complete) #9
  unreachable

if.end:                                           ; preds = %entry, %lor.lhs.false
  call void @llvm.lifetime.start.p0(i64 16, ptr nonnull %_now.i.i)
  %2 = load i32, ptr @trace_events_enabled_count, align 4
  %tobool.i.i = icmp ne i32 %2, 0
  %3 = load i16, ptr @_TRACE_VISIT_COMPLETE_DSTATE, align 2
  %tobool4.i.i = icmp ne i16 %3, 0
  %or.cond.i.i = select i1 %tobool.i.i, i1 %tobool4.i.i, i1 false
  br i1 %or.cond.i.i, label %land.lhs.true5.i.i, label %trace_visit_complete.exit

land.lhs.true5.i.i:                               ; preds = %if.end
  %4 = load i32, ptr @qemu_loglevel, align 4
  %and.i.i.i = and i32 %4, 32768
  %cmp.i.not.i.i = icmp eq i32 %and.i.i.i, 0
  br i1 %cmp.i.not.i.i, label %trace_visit_complete.exit, label %if.then.i.i

if.then.i.i:                                      ; preds = %land.lhs.true5.i.i
  %5 = load i8, ptr @message_with_timestamp, align 1
  %tobool7.i.i = trunc i8 %5 to i1
  br i1 %tobool7.i.i, label %if.then8.i.i, label %if.else.i.i

if.then8.i.i:                                     ; preds = %if.then.i.i
  %call9.i.i = call i32 @gettimeofday(ptr noundef nonnull %_now.i.i, ptr noundef null) #10
  %call10.i.i = tail call i32 @qemu_get_thread_id() #10
  %6 = load i64, ptr %_now.i.i, align 8
  %tv_usec.i.i = getelementptr inbounds nuw i8, ptr %_now.i.i, i64 8
  %7 = load i64, ptr %tv_usec.i.i, align 8
  tail call void (ptr, ...) @qemu_log(ptr noundef nonnull @.str.19, i32 noundef %call10.i.i, i64 noundef %6, i64 noundef %7, ptr noundef nonnull %v, ptr noundef %opaque) #10
  br label %trace_visit_complete.exit

if.else.i.i:                                      ; preds = %if.then.i.i
  tail call void (ptr, ...) @qemu_log(ptr noundef nonnull @.str.20, ptr noundef nonnull %v, ptr noundef %opaque) #10
  br label %trace_visit_complete.exit

trace_visit_complete.exit:                        ; preds = %if.end, %land.lhs.true5.i.i, %if.then8.i.i, %if.else.i.i
  call void @llvm.lifetime.end.p0(i64 16, ptr nonnull %_now.i.i)
  %complete1 = getelementptr inbounds nuw i8, ptr %v, i64 200
  %8 = load ptr, ptr %complete1, align 8
  %tobool2.not = icmp eq ptr %8, null
  br i1 %tobool2.not, label %if.end5, label %if.then3

if.then3:                                         ; preds = %trace_visit_complete.exit
  tail call void %8(ptr noundef nonnull %v, ptr noundef %opaque) #10
  br label %if.end5

if.end5:                                          ; preds = %if.then3, %trace_visit_complete.exit
  ret void
}